target datalayout = "e-m:e-p270:32:32-p271:32:32-p272:64:64-i64:64-i128:128-f80:128-n8:16:32:64-S128"
target triple = "x86_64-pc-linux-gnu"

%"class.Imf_2_5::TypedAttribute" = type { %"class.Imf_2_5::Attribute", %"class.Imf_2_5::Blob" }
%"class.Imf_2_5::Attribute" = type { ptr }
%"class.Imf_2_5::Blob" = type { i32, %"class.std::shared_ptr" }
%"class.std::shared_ptr" = type { %"class.std::__shared_ptr" }
%"class.std::__shared_ptr" = type { ptr, %"class.std::__shared_count" }
%"class.std::__shared_count" = type { ptr }

; Function Attrs: mustprogress uwtable
define linkonce_odr noundef zeroext i1 @_ZN7Imf_2_58StreamIO9readCharsERNS_7IStreamEPci(ptr noundef nonnull align 8 dereferenceable(40) %0, ptr noundef %1, i32 noundef %2) #5 comdat align 2 {
  %4 = alloca ptr, align 8
  %5 = alloca ptr, align 8
  %6 = alloca i32, align 4
  store ptr %0, ptr %4, align 8, !tbaa !29
  store ptr %1, ptr %5, align 8, !tbaa !25
  store i32 %2, ptr %6, align 4, !tbaa !13
  %7 = load ptr, ptr %4, align 8, !tbaa !29
  %8 = load ptr, ptr %5, align 8, !tbaa !25
  %9 = load i32, ptr %6, align 4, !tbaa !13
  %10 = load ptr, ptr %7, align 8, !tbaa !225
  %11 = getelementptr inbounds ptr, ptr %10, i64 3
  %12 = load ptr, ptr %11, align 8
  %13 = call noundef zeroext i1 %12(ptr noundef nonnull align 8 dereferenceable(40) %7, ptr noundef %8, i32 noundef %9)
  ret i1 %13
}

; Function Attrs: inlinehint mustprogress uwtable
define linkonce_odr void @_ZN7Imf_2_53Xdr17readUnsignedCharsINS_8StreamIOENS_7IStreamEEEvRT0_Phi(ptr noundef nonnull align 8 dereferenceable(40) %0, ptr noundef %1, i32 noundef %2) #6 comdat {
  %4 = alloca ptr, align 8
  %5 = alloca ptr, align 8
  %6 = alloca i32, align 4
  store ptr %0, ptr %4, align 8, !tbaa !29
  store ptr %1, ptr %5, align 8, !tbaa !25
  store i32 %2, ptr %6, align 4, !tbaa !13
  %7 = load ptr, ptr %4, align 8, !tbaa !29
  %8 = load ptr, ptr %5, align 8, !tbaa !25
  %9 = load i32, ptr %6, align 4, !tbaa !13
  %10 = call noundef zeroext i1 @_ZN7Imf_2_58StreamIO9readCharsERNS_7IStreamEPci(ptr noundef nonnull align 8 dereferenceable(40) %7, ptr noundef %8, i32 noundef %9)
  ret void
}

; Function Attrs: inlinehint mustprogress uwtable
define linkonce_odr void @_ZN7Imf_2_53Xdr4readINS_8StreamIOENS_7IStreamEEEvRT0_Pci(ptr noundef nonnull align 8 dereferenceable(40) %0, ptr noundef %1, i32 noundef %2) #6 comdat {
  %4 = alloca ptr, align 8
  %5 = alloca ptr, align 8
  %6 = alloca i32, align 4
  store ptr %0, ptr %4, align 8, !tbaa !29
  store ptr %1, ptr %5, align 8, !tbaa !25
  store i32 %2, ptr %6, align 4, !tbaa !13
  %7 = load ptr, ptr %4, align 8, !tbaa !29
  %8 = load ptr, ptr %5, align 8, !tbaa !25
  %9 = load i32, ptr %6, align 4, !tbaa !13
  %10 = call noundef zeroext i1 @_ZN7Imf_2_58StreamIO9readCharsERNS_7IStreamEPci(ptr noundef nonnull align 8 dereferenceable(40) %7, ptr noundef %8, i32 noundef %9)
  ret void
}

; Function Attrs: mustprogress nounwind uwtable
define linkonce_odr noundef ptr @_ZNKSt12__shared_ptrIhLN9__gnu_cxx12_Lock_policyE2EE3getEv(ptr noundef nonnull align 8 dereferenceable(16) %0) #4 comdat align 2 {
  %2 = alloca ptr, align 8
  store ptr %0, ptr %2, align 8, !tbaa !26
  %3 = load ptr, ptr %2, align 8
  %4 = getelementptr inbounds nuw %"class.std::__shared_ptr", ptr %3, i32 0, i32 0
  %5 = load ptr, ptr %4, align 8, !tbaa !28
  ret ptr %5
}

; Function Attrs: mustprogress uwtable
define linkonce_odr void @_ZN7Imf_2_53Xdr4readINS_8StreamIOENS_7IStreamEEEvRT0_Rj(ptr noundef nonnull align 8 dereferenceable(40) %0, ptr noundef nonnull align 4 dereferenceable(4) %1) #5 comdat {
  %3 = alloca ptr, align 8
  %4 = alloca ptr, align 8
  %5 = alloca [4 x i8], align 1
  store ptr %0, ptr %3, align 8, !tbaa !29
  store ptr %1, ptr %4, align 8, !tbaa !31
  call void @llvm.lifetime.start.p0(i64 4, ptr %5) #3
  %6 = load ptr, ptr %3, align 8, !tbaa !29
  %7 = getelementptr inbounds [4 x i8], ptr %5, i64 0, i64 0
  call void @_ZN7Imf_2_53Xdr17readUnsignedCharsINS_8StreamIOENS_7IStreamEEEvRT0_Phi(ptr noundef nonnull align 8 dereferenceable(40) %6, ptr noundef %7, i32 noundef 4)
  %8 = getelementptr inbounds [4 x i8], ptr %5, i64 0, i64 0
  %9 = load i8, ptr %8, align 1, !tbaa !24
  %10 = zext i8 %9 to i32
  %11 = and i32 %10, 255
  %12 = getelementptr inbounds [4 x i8], ptr %5, i64 0, i64 1
  %13 = load i8, ptr %12, align 1, !tbaa !24
  %14 = zext i8 %13 to i32
  %15 = shl i32 %14, 8
  %16 = and i32 %15, 65280
  %17 = or i32 %11, %16
  %18 = getelementptr inbounds [4 x i8], ptr %5, i64 0, i64 2
  %19 = load i8, ptr %18, align 1, !tbaa !24
  %20 = zext i8 %19 to i32
  %21 = shl i32 %20, 16
  %22 = and i32 %21, 16711680
  %23 = or i32 %17, %22
  %24 = getelementptr inbounds [4 x i8], ptr %5, i64 0, i64 3
  %25 = load i8, ptr %24, align 1, !tbaa !24
  %26 = zext i8 %25 to i32
  %27 = shl i32 %26, 24
  %28 = or i32 %23, %27
  %29 = load ptr, ptr %4, align 8, !tbaa !31
  store i32 %28, ptr %29, align 4, !tbaa !13
  call void @llvm.lifetime.end.p0(i64 4, ptr %5) #3
  ret void
}

; Function Attrs: mustprogress uwtable
define void @_ZN7Imf_2_514TypedAttributeINS_4BlobEE13readValueFromERNS_7IStreamEii(ptr noundef nonnull align 8 dereferenceable(32) %0, ptr noundef nonnull align 8 dereferenceable(40) %1, i32 noundef %2, i32 noundef %3) unnamed_addr #5 align 2 {
  %5 = alloca ptr, align 8
  %6 = alloca ptr, align 8
  %7 = alloca i32, align 4
  %8 = alloca i32, align 4
  store ptr %0, ptr %5, align 8, !tbaa !6
  store ptr %1, ptr %6, align 8, !tbaa !29
  store i32 %2, ptr %7, align 4, !tbaa !13
  store i32 %3, ptr %8, align 4, !tbaa !13
  %9 = load ptr, ptr %5, align 8
  %10 = load ptr, ptr %6, align 8, !tbaa !29
  %11 = getelementptr inbounds nuw %"class.Imf_2_5::TypedAttribute", ptr %9, i32 0, i32 1
  %12 = getelementptr inbounds nuw %"class.Imf_2_5::Blob", ptr %11, i32 0, i32 0
  call void @_ZN7Imf_2_53Xdr4readINS_8StreamIOENS_7IStreamEEEvRT0_Rj(ptr noundef nonnull align 8 dereferenceable(40) %10, ptr noundef nonnull align 4 dereferenceable(4) %12)
  %13 = getelementptr inbounds nuw %"class.Imf_2_5::TypedAttribute", ptr %9, i32 0, i32 1
  %14 = getelementptr inbounds nuw %"class.Imf_2_5::Blob", ptr %13, i32 0, i32 1
  %15 = getelementptr inbounds nuw %"class.Imf_2_5::TypedAttribute", ptr %9, i32 0, i32 1
  %16 = getelementptr inbounds nuw %"class.Imf_2_5::Blob", ptr %15, i32 0, i32 0
  %17 = load i32, ptr %16, align 8, !tbaa !15
  %18 = zext i32 %17 to i64
  %19 = call noalias noundef nonnull ptr @_Znam(i64 noundef %18) #23
  call void @_ZNSt12__shared_ptrIhLN9__gnu_cxx12_Lock_policyE2EE5resetIh13array_deleterIhEEENSt9enable_ifIXsr21__sp_is_constructibleIhT_EE5valueEvE4typeEPS7_T0_(ptr noundef nonnull align 8 dereferenceable(16) %14, ptr noundef %19)
  %20 = load ptr, ptr %6, align 8, !tbaa !29
  %21 = getelementptr inbounds nuw %"class.Imf_2_5::TypedAttribute", ptr %9, i32 0, i32 1
  %22 = getelementptr inbounds nuw %"class.Imf_2_5::Blob", ptr %21, i32 0, i32 1
  %23 = call noundef ptr @_ZNKSt12__shared_ptrIhLN9__gnu_cxx12_Lock_policyE2EE3getEv(ptr noundef nonnull align 8 dereferenceable(16) %22) #3
  %24 = getelementptr inbounds nuw %"class.Imf_2_5::TypedAttribute", ptr %9, i32 0, i32 1
  %25 = getelementptr inbounds nuw %"class.Imf_2_5::Blob", ptr %24, i32 0, i32 0
  %26 = load i32, ptr %25, align 8, !tbaa !15
  call void @_ZN7Imf_2_53Xdr4readINS_8StreamIOENS_7IStreamEEEvRT0_Pci(ptr noundef nonnull align 8 dereferenceable(40) %20, ptr noundef %23, i32 noundef %26)
  ret void
}