; Function Attrs: mustprogress uwtable
define void @_ZN7Imf_2_514TypedAttributeINS_4BlobEE13readValueFromERNS_7IStreamEii(ptr noundef nonnull align 8 dereferenceable(32) initializes((8, 12)) %0, ptr noundef nonnull align 8 dereferenceable(40) %1, i32 noundef %2, i32 noundef %3) unnamed_addr #4 align 2 {
  %5 = alloca [4 x i8], align 4
  %6 = getelementptr inbounds nuw i8, ptr %0, i64 8
  call void @llvm.lifetime.start.p0(i64 4, ptr nonnull %5) #24
  %7 = load ptr, ptr %1, align 8, !tbaa !20
  %8 = getelementptr inbounds nuw i8, ptr %7, i64 24
  %9 = load ptr, ptr %8, align 8
  %10 = call noundef zeroext i1 %9(ptr noundef nonnull align 8 dereferenceable(40) %1, ptr noundef nonnull %5, i32 noundef 4)
  %11 = load i32, ptr %5, align 4
  store i32 %11, ptr %6, align 8, !tbaa !23
  call void @llvm.lifetime.end.p0(i64 4, ptr nonnull %5) #24
  %12 = getelementptr inbounds nuw i8, ptr %0, i64 16
  %13 = zext i32 %11 to i64
  %14 = call noalias noundef nonnull ptr @_Znam(i64 noundef %13) #25
  call void @_ZNSt12__shared_ptrIhLN9__gnu_cxx12_Lock_policyE2EE5resetIh13array_deleterIhEEENSt9enable_ifIXsr21__sp_is_constructibleIhT_EE5valueEvE4typeEPS7_T0_(ptr noundef nonnull align 8 dereferenceable(16) %12, ptr noundef nonnull %14)
  %15 = load ptr, ptr %12, align 8, !tbaa !22
  %16 = load i32, ptr %6, align 8, !tbaa !6
  %17 = load ptr, ptr %1, align 8, !tbaa !20
  %18 = getelementptr inbounds nuw i8, ptr %17, i64 24
  %19 = load ptr, ptr %18, align 8
  %20 = call noundef zeroext i1 %19(ptr noundef nonnull align 8 dereferenceable(40) %1, ptr noundef %15, i32 noundef %16)
  ret void
}